(dp1
S'PyBlosxom'
p2
(lp3
S'/home/zoomq/3hg/pyk.pyblosoxm/zoomquiet/entries/FristBlog.txt'
p4
asS'py4web'
p5
(lp6
S'/home/zoomq/3hg/pyk.pyblosoxm/zoomquiet/entries/utility/py4web/Django/django-stepbystep-2006-01-27-23-23.txt'
p7
asS'Django'
p8
(lp9
g7
asS'init'
p10
(lp11
g4
asS'txt'
p12
(lp13
g4
asS'utility'
p14
(lp15
g7
as.